; Function Attrs: mustprogress uwtable
define void @_ZNK19OpenColorIO_v2_4dev19ColorSpaceTransform18createEditableCopyEv(ptr noalias nocapture writeonly sret(%"class.std::shared_ptr.0") align 8 %agg.result, ptr nocapture noundef nonnull readonly align 8 dereferenceable(16) %this) unnamed_addr #0 align 2 personality ptr @__gxx_personality_v0 {
entry:
  %transform = alloca %"class.std::shared_ptr", align 8
  call void @_ZN19OpenColorIO_v2_4dev19ColorSpaceTransform6CreateEv(ptr nonnull sret(%"class.std::shared_ptr") align 8 %transform)
  %m_impl = getelementptr inbounds i8, ptr %this, i64 8
  %0 = load ptr, ptr %m_impl, align 8
  %1 = load ptr, ptr %transform, align 8
  %m_impl2 = getelementptr inbounds i8, ptr %1, i64 8
  %2 = load ptr, ptr %m_impl2, align 8
  %cmp.not.i = icmp eq ptr %2, %0
  br i1 %cmp.not.i, label %_ZNSt10shared_ptrIN19OpenColorIO_v2_4dev19ColorSpaceTransformEED2Ev.exit, label %if.then.i

if.then.i:                                        ; preds = %entry
  %3 = load i32, ptr %0, align 8
  store i32 %3, ptr %2, align 8
  %m_src.i = getelementptr inbounds i8, ptr %0, i64 8
  %m_src3.i = getelementptr inbounds i8, ptr %2, i64 8
  %call.i1 = invoke noundef nonnull align 8 dereferenceable(32) ptr @_ZNSt7__cxx1112basic_stringIcSt11char_traitsIcESaIcEEaSERKS4_(ptr noundef nonnull align 8 dereferenceable(32) %m_src3.i, ptr noundef nonnull align 8 dereferenceable(32) %m_src.i)
          to label %call.i.noexc unwind label %lpad

call.i.noexc:                                     ; preds = %if.then.i
  %m_dst.i = getelementptr inbounds i8, ptr %0, i64 40
  %m_dst4.i = getelementptr inbounds i8, ptr %2, i64 40
  %call5.i2 = invoke noundef nonnull align 8 dereferenceable(32) ptr @_ZNSt7__cxx1112basic_stringIcSt11char_traitsIcESaIcEEaSERKS4_(ptr noundef nonnull align 8 dereferenceable(32) %m_dst4.i, ptr noundef nonnull align 8 dereferenceable(32) %m_dst.i)
          to label %call5.i.noexc unwind label %lpad

call5.i.noexc:                                    ; preds = %call.i.noexc
  %m_dataBypass.i = getelementptr inbounds i8, ptr %0, i64 72
  %4 = load i8, ptr %m_dataBypass.i, align 8
  %5 = and i8 %4, 1
  %m_dataBypass6.i = getelementptr inbounds i8, ptr %2, i64 72
  store i8 %5, ptr %m_dataBypass6.i, align 8
  br label %_ZNSt10shared_ptrIN19OpenColorIO_v2_4dev19ColorSpaceTransformEED2Ev.exit

_ZNSt10shared_ptrIN19OpenColorIO_v2_4dev19ColorSpaceTransformEED2Ev.exit: ; preds = %entry, %call5.i.noexc
  store ptr %1, ptr %agg.result, align 8
  %_M_refcount.i.i = getelementptr inbounds i8, ptr %agg.result, i64 8
  %_M_refcount4.i.i = getelementptr inbounds i8, ptr %transform, i64 8
  %6 = load ptr, ptr %_M_refcount4.i.i, align 8
  store ptr %6, ptr %_M_refcount.i.i, align 8
  ret void

lpad:                                             ; preds = %call.i.noexc, %if.then.i
  %7 = landingpad { ptr, i32 }
          cleanup
  call void @_ZNSt10shared_ptrIN19OpenColorIO_v2_4dev19ColorSpaceTransformEED2Ev(ptr noundef nonnull align 8 dereferenceable(16) %transform) #20
  resume { ptr, i32 } %7
}